Certificate:
    Data:
        Version: 3 (0x2)
        Serial Number: 1 (0x1)
        Signature Algorithm: sha1WithRSAEncryption
        Issuer: C=FR, ST=IDF, O=SAGEMCOM, OU=URD2, CN=cert_CA
        Validity
            Not Before: May  3 07:07:48 2012 GMT
            Not After : May  1 07:07:48 2022 GMT
        Subject: C=FR, ST=IDF, O=SAGEMCOM, OU=URD2, CN=cert_CA
        Subject Public Key Info:
            Public Key Algorithm: rsaEncryption
            RSA Public Key: (2048 bit)
                Modulus (2048 bit):
                    00:be:1b:cb:42:4e:c3:44:10:c7:1c:a2:f7:67:db:
                    c6:fb:35:fc:e0:2f:3b:c9:eb:64:fc:bf:2b:2c:9c:
                    d9:27:3c:7d:86:a4:87:de:f4:77:08:51:76:7f:be:
                    e4:7e:e2:8b:fe:c9:79:25:e2:18:59:e1:37:4d:e8:
                    71:fc:4b:4b:5f:4c:a0:db:7d:67:e8:fd:90:c2:b8:
                    81:59:df:17:97:40:66:96:1a:39:eb:8a:fb:74:4d:
                    a0:f1:a3:a7:00:8b:15:08:ac:a3:a7:6f:da:6f:11:
                    5d:54:a6:51:97:e0:eb:da:c3:ab:d0:a8:ca:ad:fd:
                    0e:0a:d4:f9:73:02:35:d9:e7:f6:ce:36:fa:75:d5:
                    fb:af:d1:4c:7f:c5:e0:63:ce:c5:f7:56:38:73:41:
                    cb:61:21:ce:49:3f:d1:76:14:b7:25:eb:7a:ea:52:
                    9e:6a:67:b3:0b:88:da:4a:59:ce:00:83:54:67:2d:
                    40:2a:3f:38:a2:8b:e2:bc:65:59:36:5f:a9:16:1d:
                    c8:6c:e7:0a:6a:8f:61:56:d0:07:70:0a:82:e7:74:
                    b1:79:1d:d2:01:4f:da:53:84:44:9e:b2:91:03:48:
                    58:f3:cf:43:db:19:c8:90:93:f7:f4:50:10:a5:bb:
                    5d:d4:4e:66:d1:56:fe:1c:a0:b2:1e:0d:4f:e1:19:
                    89:61
                Exponent: 65537 (0x10001)
        X509v3 extensions:
            X509v3 Subject Key Identifier: 
                53:4B:3B:CD:32:3E:81:71:3F:BD:00:86:2B:35:E0:30:20:51:2B:95
            X509v3 Authority Key Identifier: 
                keyid:53:4B:3B:CD:32:3E:81:71:3F:BD:00:86:2B:35:E0:30:20:51:2B:95
                DirName:/C=FR/ST=IDF/O=SAGEMCOM/OU=URD2/CN=cert_CA
                serial:01

            X509v3 Basic Constraints: 
                CA:TRUE
    Signature Algorithm: sha1WithRSAEncryption
        0f:da:50:74:51:3f:43:1a:5c:58:90:b7:82:82:a6:82:0c:4a:
        b1:f0:22:ba:0b:fa:1d:22:50:d4:6a:7e:5d:4a:02:1b:ca:6d:
        1a:a5:cf:d1:07:3f:f9:f8:32:cf:e4:bb:d4:26:fa:55:10:e2:
        ca:39:b7:62:67:bc:01:48:de:23:b8:48:29:a7:41:59:28:ed:
        e6:56:65:d7:fa:8a:84:d5:b8:63:16:25:87:08:d1:cd:a4:bf:
        ce:47:03:5d:58:52:f8:b6:38:5b:2b:81:d7:2f:51:3e:fc:73:
        0d:2b:bd:39:b1:5e:80:89:ad:ce:e6:d2:e4:44:38:8d:19:8b:
        3d:e0:07:9e:e0:6e:74:b6:0a:60:c9:74:a6:85:1d:0e:74:28:
        cb:5f:96:4d:62:e7:24:fe:2d:fc:c4:22:36:c7:39:e6:42:ba:
        15:e5:e8:d9:1a:c1:ca:3d:95:99:99:4e:04:da:df:43:0a:96:
        95:30:70:1b:c6:68:95:a1:c5:96:f5:18:da:7e:24:fc:50:d5:
        95:ab:69:7c:6a:d6:a6:4b:46:10:7f:c2:55:ad:26:64:c5:46:
        0d:e7:ae:40:35:23:e1:23:7f:29:d5:49:e0:ae:e2:6d:24:82:
        a7:aa:1f:85:6a:48:16:2b:5d:e6:d5:19:7b:b6:c9:60:cb:da:
        1e:e1:e3:aa
-----BEGIN CERTIFICATE-----
MIIDwzCCAqugAwIBAgIBATANBgkqhkiG9w0BAQUFADBPMQswCQYDVQQGEwJGUjEM
MAoGA1UECBMDSURGMREwDwYDVQQKEwhTQUdFTUNPTTENMAsGA1UECxMEVVJEMjEQ
MA4GA1UEAxQHY2VydF9DQTAeFw0xMjA1MDMwNzA3NDhaFw0yMjA1MDEwNzA3NDha
ME8xCzAJBgNVBAYTAkZSMQwwCgYDVQQIEwNJREYxETAPBgNVBAoTCFNBR0VNQ09N
MQ0wCwYDVQQLEwRVUkQyMRAwDgYDVQQDFAdjZXJ0X0NBMIIBIjANBgkqhkiG9w0B
AQEFAAOCAQ8AMIIBCgKCAQEAvhvLQk7DRBDHHKL3Z9vG+zX84C87yetk/L8rLJzZ
Jzx9hqSH3vR3CFF2f77kfuKL/sl5JeIYWeE3Tehx/EtLX0yg231n6P2QwriBWd8X
l0Bmlho564r7dE2g8aOnAIsVCKyjp2/abxFdVKZRl+Dr2sOr0KjKrf0OCtT5cwI1
2ef2zjb6ddX7r9FMf8XgY87F91Y4c0HLYSHOST/RdhS3Jet66lKeamezC4jaSlnO
AINUZy1AKj84oovivGVZNl+pFh3IbOcKao9hVtAHcAqC53SxeR3SAU/aU4REnrKR
A0hY889D2xnIkJP39FAQpbtd1E5m0Vb+HKCyHg1P4RmJYQIDAQABo4GpMIGmMB0G
A1UdDgQWBBRTSzvNMj6BcT+9AIYrNeAwIFErlTB3BgNVHSMEcDBugBRTSzvNMj6B
cT+9AIYrNeAwIFErlaFTpFEwTzELMAkGA1UEBhMCRlIxDDAKBgNVBAgTA0lERjER
MA8GA1UEChMIU0FHRU1DT00xDTALBgNVBAsTBFVSRDIxEDAOBgNVBAMUB2NlcnRf
Q0GCAQEwDAYDVR0TBAUwAwEB/zANBgkqhkiG9w0BAQUFAAOCAQEAD9pQdFE/Qxpc
WJC3goKmggxKsfAiugv6HSJQ1Gp+XUoCG8ptGqXP0Qc/+fgyz+S71Cb6VRDiyjm3
Yme8AUjeI7hIKadBWSjt5lZl1/qKhNW4YxYlhwjRzaS/zkcDXVhS+LY4WyuB1y9R
PvxzDSu9ObFegImtzubS5EQ4jRmLPeAHnuBudLYKYMl0poUdDnQoy1+WTWLnJP4t
/MQiNsc55kK6FeXo2RrByj2VmZlOBNrfQwqWlTBwG8ZolaHFlvUY2n4k/FDVlatp
fGrWpktGEH/CVa0mZMVGDeeuQDUj4SN/KdVJ4K7ibSSCp6ofhWpIFitd5tUZe7bJ
YMvaHuHjqg==
-----END CERTIFICATE-----
