Certificate:
    Data:
        Version: 3 (0x2)
        Serial Number: 3 (0x3)
        Signature Algorithm: sha1WithRSAEncryption
        Issuer: C=FR, ST=IDF, O=SAGEMCOM, OU=URD2, CN=cert_CA
        Validity
            Not Before: May  3 09:30:59 2012 GMT
            Not After : May  1 09:30:59 2022 GMT
        Subject: C=FR, ST=IDF, L=PARIS, O=SAGEMCOM, OU=URD2, CN=evlpclt
        Subject Public Key Info:
            Public Key Algorithm: rsaEncryption
            RSA Public Key: (1024 bit)
                Modulus (1024 bit):
                    00:aa:7c:fb:bb:d0:d7:f7:f0:3c:f6:a3:10:79:5c:
                    a5:dc:02:2e:f1:a3:34:51:39:74:28:c0:8b:fb:2e:
                    c7:82:dd:30:ba:56:86:e7:7b:bd:e9:e5:b8:57:a7:
                    5b:8f:b3:b4:db:9b:99:e6:5c:bc:a1:4a:37:cd:08:
                    4b:43:26:f2:a8:b1:75:60:40:9e:ea:c1:62:b0:43:
                    49:20:7a:8a:9a:2b:0f:a2:57:bb:68:65:2b:78:4c:
                    ab:07:e9:92:5c:b7:b0:69:62:5c:d5:8e:7d:2d:49:
                    12:76:5f:f7:ad:b0:9f:a8:5b:4b:4f:dd:97:c3:18:
                    b1:af:69:1d:7d:3e:40:52:71
                Exponent: 65537 (0x10001)
        X509v3 extensions:
            X509v3 Basic Constraints: 
                CA:FALSE
            Netscape Comment: 
                OpenSSL Generated Certificate
            X509v3 Subject Key Identifier: 
                E0:88:91:01:86:45:C6:D9:F8:6F:C2:B5:BE:E5:BB:D3:BA:4A:D8:B4
            X509v3 Authority Key Identifier: 
                keyid:53:4B:3B:CD:32:3E:81:71:3F:BD:00:86:2B:35:E0:30:20:51:2B:95

    Signature Algorithm: sha1WithRSAEncryption
        8c:54:78:d2:a2:20:13:24:7a:52:fa:3b:e5:d6:ea:0f:3a:77:
        60:12:4d:66:a6:1b:7d:88:77:70:90:e6:60:68:e1:e4:ce:5a:
        78:44:8d:d0:69:c4:ac:df:0c:22:1f:4a:0e:a3:63:ff:95:a2:
        57:98:fe:2e:74:a4:24:28:28:3f:b8:f1:f5:c4:16:d2:52:74:
        24:67:40:2f:84:c7:75:d0:5f:01:b5:12:99:dd:93:47:a9:5a:
        ed:5e:b5:ab:7a:c0:22:ce:10:f1:bb:8e:f2:ff:04:26:dc:97:
        35:b8:ec:c6:89:90:8d:5c:89:02:fb:7a:de:94:df:be:f3:59:
        37:ec:43:62:f7:d3:17:d4:54:67:26:39:85:8e:c2:0e:8e:8e:
        42:6b:a9:64:45:b7:ba:28:b4:b4:9c:82:7f:0b:35:8b:00:4a:
        a9:a7:5b:f6:d6:32:08:16:57:52:15:f0:53:4a:dc:9c:98:29:
        ee:75:7b:64:9f:d8:65:2c:b7:15:94:70:0b:a7:41:06:50:bb:
        49:a2:a4:a1:81:af:74:d8:d7:fe:47:07:ea:a2:5d:90:e7:ed:
        71:1b:06:e5:38:09:79:f4:d4:66:16:54:5d:1e:1b:24:d3:05:
        11:e4:57:60:7e:f7:e5:69:be:6d:d0:ed:6c:52:03:b0:da:13:
        73:01:3e:40
-----BEGIN CERTIFICATE-----
MIIDIDCCAgigAwIBAgIBAzANBgkqhkiG9w0BAQUFADBPMQswCQYDVQQGEwJGUjEM
MAoGA1UECBMDSURGMREwDwYDVQQKEwhTQUdFTUNPTTENMAsGA1UECxMEVVJEMjEQ
MA4GA1UEAxQHY2VydF9DQTAeFw0xMjA1MDMwOTMwNTlaFw0yMjA1MDEwOTMwNTla
MF8xCzAJBgNVBAYTAkZSMQwwCgYDVQQIEwNJREYxDjAMBgNVBAcTBVBBUklTMREw
DwYDVQQKEwhTQUdFTUNPTTENMAsGA1UECxMEVVJEMjEQMA4GA1UEAxMHZXZscGNs
dDCBnzANBgkqhkiG9w0BAQEFAAOBjQAwgYkCgYEAqnz7u9DX9/A89qMQeVyl3AIu
8aM0UTl0KMCL+y7Hgt0wulaG53u96eW4V6dbj7O025uZ5ly8oUo3zQhLQybyqLF1
YECe6sFisENJIHqKmisPole7aGUreEyrB+mSXLewaWJc1Y59LUkSdl/3rbCfqFtL
T92Xwxixr2kdfT5AUnECAwEAAaN7MHkwCQYDVR0TBAIwADAsBglghkgBhvhCAQ0E
HxYdT3BlblNTTCBHZW5lcmF0ZWQgQ2VydGlmaWNhdGUwHQYDVR0OBBYEFOCIkQGG
RcbZ+G/Ctb7lu9O6Sti0MB8GA1UdIwQYMBaAFFNLO80yPoFxP70Ahis14DAgUSuV
MA0GCSqGSIb3DQEBBQUAA4IBAQCMVHjSoiATJHpS+jvl1uoPOndgEk1mpht9iHdw
kOZgaOHkzlp4RI3QacSs3wwiH0oOo2P/laJXmP4udKQkKCg/uPH1xBbSUnQkZ0Av
hMd10F8BtRKZ3ZNHqVrtXrWresAizhDxu47y/wQm3Jc1uOzGiZCNXIkC+3relN++
81k37ENi99MX1FRnJjmFjsIOjo5Ca6lkRbe6KLS0nIJ/CzWLAEqpp1v21jIIFldS
FfBTStycmCnudXtkn9hlLLcVlHALp0EGULtJoqShga902Nf+Rwfqol2Q5+1xGwbl
OAl59NRmFlRdHhsk0wUR5Fdgfvflab5t0O1sUgOw2hNzAT5A
-----END CERTIFICATE-----
