Certificate:
    Data:
        Version: 3 (0x2)
        Serial Number: 2 (0x2)
        Signature Algorithm: sha1WithRSAEncryption
        Issuer: C=FR, ST=IDF, O=SAGEMCOM, OU=URD2, CN=cert_CA
        Validity
            Not Before: May  3 07:51:54 2012 GMT
            Not After : May  1 07:51:54 2022 GMT
        Subject: C=FR, ST=IDF, L=PARIS, O=SAGEMCOM, OU=URD2, CN=evlpsrv
        Subject Public Key Info:
            Public Key Algorithm: rsaEncryption
            RSA Public Key: (1024 bit)
                Modulus (1024 bit):
                    00:ca:43:59:71:b4:74:f7:15:17:26:1f:52:34:49:
                    71:4e:0d:43:26:da:f6:4b:5a:7e:da:bc:ad:f2:f0:
                    4e:60:f5:7d:cd:11:44:36:32:4d:20:90:0d:9f:fa:
                    78:01:be:5e:ea:8c:e4:9b:32:1c:47:4a:b2:4e:2a:
                    de:95:be:35:12:b7:a0:1a:26:99:09:0e:68:60:3b:
                    9d:8b:3a:e4:1e:54:a4:1c:2f:08:f0:04:bb:8a:cb:
                    3f:ab:3a:64:b4:1b:85:b4:e5:21:47:92:75:3e:33:
                    29:c1:93:a5:9e:f2:c0:12:6d:c8:7a:f5:77:14:bf:
                    99:01:32:f7:d7:23:3a:04:fd
                Exponent: 65537 (0x10001)
        X509v3 extensions:
            X509v3 Basic Constraints: 
                CA:FALSE
            Netscape Comment: 
                OpenSSL Generated Certificate
            X509v3 Subject Key Identifier: 
                DF:9F:FB:87:25:59:54:D0:83:47:19:F1:14:32:66:EE:31:4D:2E:40
            X509v3 Authority Key Identifier: 
                keyid:53:4B:3B:CD:32:3E:81:71:3F:BD:00:86:2B:35:E0:30:20:51:2B:95

    Signature Algorithm: sha1WithRSAEncryption
        5d:fe:96:13:ec:a8:f4:ea:24:dd:c2:66:41:41:11:33:22:cc:
        b5:28:f8:5b:a1:ed:aa:a0:bb:c5:41:57:10:7c:a4:ab:15:d5:
        e9:da:cd:e6:87:b4:7c:b4:2c:f3:f2:8e:0c:46:a9:ba:be:e3:
        a4:71:95:ac:28:dd:c5:e5:e9:81:8f:cc:af:90:d6:f7:cc:78:
        ca:09:ee:72:8c:a1:aa:f1:cf:04:bf:6b:4a:62:d7:45:05:7b:
        4b:25:00:b5:21:d0:4e:c9:55:7f:9f:f7:b6:09:40:99:b2:e7:
        a4:de:55:61:55:39:2e:33:45:86:46:cf:a8:90:52:3b:be:96:
        4c:a6:31:0e:0a:06:ba:a7:6a:b8:ea:8b:b5:2d:85:37:c2:f6:
        d8:c3:8d:f1:6f:10:d5:db:1c:c5:6f:9e:07:20:56:1f:51:be:
        55:b1:66:d4:78:ba:36:d0:92:4c:2f:fd:a4:6c:34:77:1a:0c:
        6d:18:9d:eb:cb:7b:f7:9d:01:0f:b5:4b:f3:1d:91:74:eb:bf:
        c2:e1:56:93:9e:4e:0d:90:1e:3d:2c:a5:9c:55:60:48:ba:ae:
        8b:77:51:83:e3:9b:d8:98:b0:39:79:51:67:e6:3e:e3:17:4d:
        dd:68:34:03:4d:e8:9e:b3:1d:f9:18:b1:9d:1c:09:db:fe:2d:
        bc:fc:e3:11
-----BEGIN CERTIFICATE-----
MIIDIDCCAgigAwIBAgIBAjANBgkqhkiG9w0BAQUFADBPMQswCQYDVQQGEwJGUjEM
MAoGA1UECBMDSURGMREwDwYDVQQKEwhTQUdFTUNPTTENMAsGA1UECxMEVVJEMjEQ
MA4GA1UEAxQHY2VydF9DQTAeFw0xMjA1MDMwNzUxNTRaFw0yMjA1MDEwNzUxNTRa
MF8xCzAJBgNVBAYTAkZSMQwwCgYDVQQIEwNJREYxDjAMBgNVBAcTBVBBUklTMREw
DwYDVQQKEwhTQUdFTUNPTTENMAsGA1UECxMEVVJEMjEQMA4GA1UEAxMHZXZscHNy
djCBnzANBgkqhkiG9w0BAQEFAAOBjQAwgYkCgYEAykNZcbR09xUXJh9SNElxTg1D
Jtr2S1p+2ryt8vBOYPV9zRFENjJNIJANn/p4Ab5e6ozkmzIcR0qyTirelb41Ereg
GiaZCQ5oYDudizrkHlSkHC8I8AS7iss/qzpktBuFtOUhR5J1PjMpwZOlnvLAEm3I
evV3FL+ZATL31yM6BP0CAwEAAaN7MHkwCQYDVR0TBAIwADAsBglghkgBhvhCAQ0E
HxYdT3BlblNTTCBHZW5lcmF0ZWQgQ2VydGlmaWNhdGUwHQYDVR0OBBYEFN+f+4cl
WVTQg0cZ8RQyZu4xTS5AMB8GA1UdIwQYMBaAFFNLO80yPoFxP70Ahis14DAgUSuV
MA0GCSqGSIb3DQEBBQUAA4IBAQBd/pYT7Kj06iTdwmZBQREzIsy1KPhboe2qoLvF
QVcQfKSrFdXp2s3mh7R8tCzz8o4MRqm6vuOkcZWsKN3F5emBj8yvkNb3zHjKCe5y
jKGq8c8Ev2tKYtdFBXtLJQC1IdBOyVV/n/e2CUCZsuek3lVhVTkuM0WGRs+okFI7
vpZMpjEOCga6p2q46ou1LYU3wvbYw43xbxDV2xzFb54HIFYfUb5VsWbUeLo20JJM
L/2kbDR3GgxtGJ3ry3v3nQEPtUvzHZF067/C4VaTnk4NkB49LKWcVWBIuq6Ld1GD
45vYmLA5eVFn5j7jF03daDQDTeiesx35GLGdHAnb/i28/OMR
-----END CERTIFICATE-----
